; Function Attrs: nounwind uwtable
define hidden noundef i32 @Curl_http_done(ptr noundef %0, i32 noundef %1, i1 noundef zeroext %2) #0 {
  %4 = getelementptr inbounds nuw i8, ptr %0, i64 24
  %5 = load ptr, ptr %4, align 8, !tbaa !75
  %6 = getelementptr inbounds nuw i8, ptr %0, i64 3408
  %7 = load i8, ptr %6, align 8
  %8 = and i8 %7, -3
  store i8 %8, ptr %6, align 8
  %9 = getelementptr inbounds nuw i8, ptr %0, i64 3440
  %10 = load i8, ptr %9, align 8
  %11 = and i8 %10, -3
  store i8 %11, ptr %9, align 8
  %12 = getelementptr inbounds nuw i8, ptr %0, i64 3160
  tail call void @Curl_dyn_reset(ptr noundef nonnull %12) #11
  %.not = icmp ne i32 %1, 0
  %brmerge = or i1 %.not, %2
  br i1 %brmerge, label %32, label %13

13:                                               ; preds = %3
  %14 = getelementptr inbounds nuw i8, ptr %5, i64 952
  %15 = load i64, ptr %14, align 8
  %16 = and i64 %15, 16384
  %.not15 = icmp eq i64 %16, 0
  br i1 %.not15, label %17, label %32

17:                                               ; preds = %13
  %18 = getelementptr inbounds nuw i8, ptr %0, i64 2658
  %19 = load i64, ptr %18, align 2
  %20 = and i64 %19, 1
  %.not16 = icmp eq i64 %20, 0
  br i1 %.not16, label %21, label %32

21:                                               ; preds = %17
  %22 = getelementptr inbounds nuw i8, ptr %0, i64 256
  %23 = load i64, ptr %22, align 8, !tbaa !115
  %24 = getelementptr inbounds nuw i8, ptr %0, i64 288
  %25 = load i32, ptr %24, align 8, !tbaa !116
  %26 = zext i32 %25 to i64
  %27 = add nsw i64 %23, %26
  %28 = getelementptr inbounds nuw i8, ptr %0, i64 296
  %29 = load i32, ptr %28, align 8, !tbaa !117
  %30 = zext i32 %29 to i64
  %.not17 = icmp sgt i64 %27, %30
  br i1 %.not17, label %32, label %31

31:                                               ; preds = %21
  tail call void (ptr, ptr, ...) @Curl_failf(ptr noundef nonnull %0, ptr noundef nonnull @.str.19) #11
  tail call void @Curl_conncontrol(ptr noundef nonnull %5, i32 noundef 2) #11
  br label %32

32:                                               ; preds = %3, %13, %17, %21, %31
  %.0 = phi i32 [ 52, %31 ], [ %1, %3 ], [ 0, %21 ], [ 0, %17 ], [ 0, %13 ]
  ret i32 %.0
}